target datalayout = "e-m:e-p270:32:32-p271:32:32-p272:64:64-i64:64-i128:128-f80:128-n8:16:32:64-S128"
target triple = "x86_64-pc-linux-gnu"

@Log_directory = dso_local global ptr null, align 8
@Log_filename = dso_local global ptr null, align 8
@.str.18 = private unnamed_addr constant [4 x i8] c"%s/\00", align 1
@log_timezone = external global ptr, align 8
@.str.19 = private unnamed_addr constant [5 x i8] c".log\00", align 1

; Function Attrs: nounwind uwtable
define internal ptr @logfile_getname(i64 noundef %0, ptr noundef %1) #4 {
  %3 = alloca i64, align 8
  %4 = alloca ptr, align 8
  %5 = alloca ptr, align 8
  %6 = alloca i32, align 4
  store i64 %0, ptr %3, align 8
  store ptr %1, ptr %4, align 8
  call void @llvm.lifetime.start.p0(i64 8, ptr %5) #12
  call void @llvm.lifetime.start.p0(i64 4, ptr %6) #12
  %7 = call ptr @palloc(i64 noundef 1024)
  store ptr %7, ptr %5, align 8
  %8 = load ptr, ptr %5, align 8
  %9 = load ptr, ptr @Log_directory, align 8
  %10 = call i32 (ptr, i64, ptr, ...) @pg_snprintf(ptr noundef %8, i64 noundef 1024, ptr noundef @.str.18, ptr noundef %9)
  %11 = load ptr, ptr %5, align 8
  %12 = call i64 @strlen(ptr noundef %11) #13
  %13 = trunc i64 %12 to i32
  store i32 %13, ptr %6, align 4
  %14 = load ptr, ptr %5, align 8
  %15 = load i32, ptr %6, align 4
  %16 = sext i32 %15 to i64
  %17 = getelementptr inbounds i8, ptr %14, i64 %16
  %18 = load i32, ptr %6, align 4
  %19 = sub i32 1024, %18
  %20 = sext i32 %19 to i64
  %21 = load ptr, ptr @Log_filename, align 8
  %22 = load ptr, ptr @log_timezone, align 8
  %23 = call ptr @pg_localtime(ptr noundef %3, ptr noundef %22)
  %24 = call i64 @pg_strftime(ptr noundef %17, i64 noundef %20, ptr noundef %21, ptr noundef %23)
  %25 = load ptr, ptr %4, align 8
  %26 = icmp ne ptr %25, null
  br i1 %26, label %27, label %54

27:                                               ; preds = %2
  %28 = load ptr, ptr %5, align 8
  %29 = call i64 @strlen(ptr noundef %28) #13
  %30 = trunc i64 %29 to i32
  store i32 %30, ptr %6, align 4
  %31 = load i32, ptr %6, align 4
  %32 = icmp sgt i32 %31, 4
  br i1 %32, label %33, label %44

33:                                               ; preds = %27
  %34 = load ptr, ptr %5, align 8
  %35 = load i32, ptr %6, align 4
  %36 = sub i32 %35, 4
  %37 = sext i32 %36 to i64
  %38 = getelementptr inbounds i8, ptr %34, i64 %37
  %39 = call i32 @strcmp(ptr noundef %38, ptr noundef @.str.19) #13
  %40 = icmp eq i32 %39, 0
  br i1 %40, label %41, label %44

41:                                               ; preds = %33
  %42 = load i32, ptr %6, align 4
  %43 = sub i32 %42, 4
  store i32 %43, ptr %6, align 4
  br label %44

44:                                               ; preds = %41, %33, %27
  %45 = load ptr, ptr %5, align 8
  %46 = load i32, ptr %6, align 4
  %47 = sext i32 %46 to i64
  %48 = getelementptr inbounds i8, ptr %45, i64 %47
  %49 = load ptr, ptr %4, align 8
  %50 = load i32, ptr %6, align 4
  %51 = sub i32 1024, %50
  %52 = sext i32 %51 to i64
  %53 = call i64 @strlcpy(ptr noundef %48, ptr noundef %49, i64 noundef %52)
  br label %54

54:                                               ; preds = %44, %2
  %55 = load ptr, ptr %5, align 8
  call void @llvm.lifetime.end.p0(i64 4, ptr %6) #12
  call void @llvm.lifetime.end.p0(i64 8, ptr %5) #12
  ret ptr %55
}