; Function Attrs: nounwind uwtable
define internal fastcc noundef ptr @logfile_getname(i64 noundef %0, ptr noundef %1) unnamed_addr #5 {
  %3 = alloca i64, align 8
  store i64 %0, ptr %3, align 8
  %4 = tail call ptr @palloc(i64 noundef 1024) #15
  %5 = load ptr, ptr @Log_directory, align 8
  %6 = tail call i32 (ptr, i64, ptr, ...) @pg_snprintf(ptr noundef %4, i64 noundef 1024, ptr noundef nonnull @.str.18, ptr noundef %5) #15
  %7 = tail call i64 @strlen(ptr noundef nonnull dereferenceable(1) %4) #16
  %sext = shl i64 %7, 32
  %8 = ashr exact i64 %sext, 32
  %9 = getelementptr inbounds i8, ptr %4, i64 %8
  %sext17 = sub i64 4398046511104, %sext
  %10 = ashr exact i64 %sext17, 32
  %11 = load ptr, ptr @Log_filename, align 8
  %12 = load ptr, ptr @log_timezone, align 8
  %13 = call ptr @pg_localtime(ptr noundef nonnull %3, ptr noundef %12) #15
  %14 = call i64 @pg_strftime(ptr noundef nonnull %9, i64 noundef %10, ptr noundef %11, ptr noundef %13) #15
  %.not = icmp eq ptr %1, null
  br i1 %.not, label %31, label %15

15:                                               ; preds = %2
  %16 = call i64 @strlen(ptr noundef nonnull dereferenceable(1) %4) #16
  %17 = trunc i64 %16 to i32
  %18 = icmp sgt i32 %17, 4
  br i1 %18, label %19, label %25

19:                                               ; preds = %15
  %20 = add nsw i32 %17, -4
  %21 = zext nneg i32 %20 to i64
  %22 = getelementptr inbounds nuw i8, ptr %4, i64 %21
  %23 = call i32 @strcmp(ptr noundef nonnull dereferenceable(1) %22, ptr noundef nonnull dereferenceable(5) @.str.19) #16
  %24 = icmp eq i32 %23, 0
  %spec.select = select i1 %24, i32 %20, i32 %17
  br label %25

25:                                               ; preds = %19, %15
  %.0 = phi i32 [ %17, %15 ], [ %spec.select, %19 ]
  %26 = sext i32 %.0 to i64
  %27 = getelementptr inbounds i8, ptr %4, i64 %26
  %28 = sub i32 1024, %.0
  %29 = sext i32 %28 to i64
  %30 = call i64 @strlcpy(ptr noundef nonnull %27, ptr noundef nonnull dereferenceable(1) %1, i64 noundef %29) #15
  br label %31

31:                                               ; preds = %25, %2
  ret ptr %4
}